Certificate:
    Data:
        Version: 3 (0x2)
        Serial Number: 3 (0x3)
        Signature Algorithm: sha1WithRSAEncryption
        Issuer: C=AT, ST=Austria, L=Vienna, O=Tiani Spirit GmbH, OU=Demo Environment, CN=Test CA/emailAddress=massimiliano.masi@tiani-spirit.com
        Validity
            Not Before: Jul 27 08:21:52 2011 GMT
            Not After : Dec 31 08:21:52 2190 GMT
        Subject: C=AT, ST=Austria, O=Tiani Spirit GmbH, OU=Demo Environment, CN=server1/emailAddress=massimiliano.masi@tiani-spirit.com
        Subject Public Key Info:
            Public Key Algorithm: rsaEncryption
            RSA Public Key: (2048 bit)
                Modulus (2048 bit):
                    00:dc:12:99:b2:68:52:bc:68:a2:ab:bd:a1:59:2f:
                    a2:06:b6:d3:b0:23:72:26:18:25:22:c0:83:48:73:
                    e7:dc:b9:55:91:c9:3e:c3:79:bf:2d:ca:69:f0:54:
                    17:c7:54:3f:fc:32:1e:6e:7f:08:92:f5:85:3b:ef:
                    84:da:d9:a0:7c:1f:f1:b0:af:94:08:9d:db:b8:78:
                    6f:7e:69:d0:c4:57:7f:83:8b:a7:b7:1e:18:80:ff:
                    c4:4f:f0:25:c2:30:66:38:2c:e0:23:68:dc:14:87:
                    f1:04:b2:7d:52:da:86:be:0e:c8:9f:7f:90:5a:f3:
                    09:9d:75:ce:a9:c9:88:b0:9a:10:df:c0:41:74:60:
                    15:c3:8e:f0:7c:89:ec:5c:2d:c3:8b:be:8f:e9:97:
                    68:4f:f3:b8:3f:a6:d0:d7:cb:45:54:59:63:f3:5f:
                    da:b1:73:a6:2d:aa:19:12:ec:4b:66:87:33:16:e5:
                    d7:96:be:64:62:3f:32:76:35:57:c2:ba:fa:5c:b0:
                    ad:93:8a:2f:8c:80:26:1b:2d:70:8b:62:40:a0:fb:
                    96:69:57:b7:ac:ae:a6:f9:85:63:9f:da:d2:94:b0:
                    39:6e:fe:c8:dc:93:69:5f:96:c5:93:13:5c:28:2a:
                    bd:2d:6e:9e:c8:c4:bc:ef:18:ac:7d:84:44:41:d2:
                    1c:c9
                Exponent: 65537 (0x10001)
        X509v3 extensions:
            X509v3 Basic Constraints: 
                CA:FALSE
            Netscape Comment: 
                OpenSSL Generated Certificate
            X509v3 Subject Key Identifier: 
                14:EC:CD:DD:49:A2:27:62:2F:B4:30:20:D8:A5:B0:02:38:28:EF:07
            X509v3 Authority Key Identifier: 
                keyid:64:C2:28:6E:51:39:46:A4:D0:F1:AE:76:45:6D:6F:38:15:78:FB:DA

    Signature Algorithm: sha1WithRSAEncryption
        8c:4a:8d:b4:e6:f6:1e:4e:81:a4:10:d1:5e:4f:6f:77:ed:2f:
        bc:94:8e:5a:f7:59:9c:bd:c8:d8:aa:f7:d2:83:7a:9d:03:8c:
        b9:de:bc:14:f2:35:24:2d:50:c0:b9:e2:d3:96:55:0d:3c:8c:
        60:e9:3f:1d:13:ca:da:34:81:c8:59:8b:64:40:9a:13:a4:39:
        67:50:53:0f:db:d1:fc:0a:ad:99:33:af:b9:bf:76:da:e4:b9:
        81:3a:55:11:68:a3:49:6d:68:f6:3f:8b:17:31:82:e2:4f:25:
        e3:15:a2:74:fb:4a:6b:7a:35:69:74:86:71:64:b0:d2:2d:41:
        2a:0c:4c:de:93:33:4a:f2:a2:79:9d:8a:41:a1:e0:65:26:fb:
        6d:f9:38:b9:1e:24:01:a8:9d:6b:98:6f:ea:4b:de:88:32:91:
        44:6f:bc:01:e0:6f:04:3e:65:a1:f6:aa:51:a5:0d:f6:af:d8:
        20:eb:9c:73:c8:07:40:1c:c6:ae:69:0e:6e:fc:b2:93:3c:8f:
        cf:9c:1d:74:b9:a8:ba:aa:d9:66:a7:ee:7c:f4:cd:87:8c:21:
        c8:00:5b:5c:23:d7:b2:9b:43:65:9b:2c:f0:39:4a:4b:7e:eb:
        15:55:0a:2c:71:21:71:f7:75:27:e2:0e:8a:86:93:9d:a3:e1:
        81:8f:dd:5e
-----BEGIN CERTIFICATE-----
MIIEQTCCAymgAwIBAgIBAzANBgkqhkiG9w0BAQUFADCBrDELMAkGA1UEBhMCQVQx
EDAOBgNVBAgTB0F1c3RyaWExDzANBgNVBAcTBlZpZW5uYTEaMBgGA1UEChMRVGlh
bmkgU3Bpcml0IEdtYkgxGTAXBgNVBAsTEERlbW8gRW52aXJvbm1lbnQxEDAOBgNV
BAMTB1Rlc3QgQ0ExMTAvBgkqhkiG9w0BCQEWIm1hc3NpbWlsaWFuby5tYXNpQHRp
YW5pLXNwaXJpdC5jb20wIBcNMTEwNzI3MDgyMTUyWhgPMjE5MDEyMzEwODIxNTJa
MIGbMQswCQYDVQQGEwJBVDEQMA4GA1UECBMHQXVzdHJpYTEaMBgGA1UEChMRVGlh
bmkgU3Bpcml0IEdtYkgxGTAXBgNVBAsTEERlbW8gRW52aXJvbm1lbnQxEDAOBgNV
BAMTB3NlcnZlcjExMTAvBgkqhkiG9w0BCQEWIm1hc3NpbWlsaWFuby5tYXNpQHRp
YW5pLXNwaXJpdC5jb20wggEiMA0GCSqGSIb3DQEBAQUAA4IBDwAwggEKAoIBAQDc
EpmyaFK8aKKrvaFZL6IGttOwI3ImGCUiwINIc+fcuVWRyT7Deb8tymnwVBfHVD/8
Mh5ufwiS9YU774Ta2aB8H/Gwr5QIndu4eG9+adDEV3+Di6e3HhiA/8RP8CXCMGY4
LOAjaNwUh/EEsn1S2oa+Dsiff5Ba8wmddc6pyYiwmhDfwEF0YBXDjvB8iexcLcOL
vo/pl2hP87g/ptDXy0VUWWPzX9qxc6YtqhkS7EtmhzMW5deWvmRiPzJ2NVfCuvpc
sK2Tii+MgCYbLXCLYkCg+5ZpV7esrqb5hWOf2tKUsDlu/sjck2lflsWTE1woKr0t
bp7IxLzvGKx9hERB0hzJAgMBAAGjezB5MAkGA1UdEwQCMAAwLAYJYIZIAYb4QgEN
BB8WHU9wZW5TU0wgR2VuZXJhdGVkIENlcnRpZmljYXRlMB0GA1UdDgQWBBQU7M3d
SaInYi+0MCDYpbACOCjvBzAfBgNVHSMEGDAWgBRkwihuUTlGpNDxrnZFbW84FXj7
2jANBgkqhkiG9w0BAQUFAAOCAQEAjEqNtOb2Hk6BpBDRXk9vd+0vvJSOWvdZnL3I
2Kr30oN6nQOMud68FPI1JC1QwLni05ZVDTyMYOk/HRPK2jSByFmLZECaE6Q5Z1BT
D9vR/AqtmTOvub922uS5gTpVEWijSW1o9j+LFzGC4k8l4xWidPtKa3o1aXSGcWSw
0i1BKgxM3pMzSvKieZ2KQaHgZSb7bfk4uR4kAaida5hv6kveiDKRRG+8AeBvBD5l
ofaqUaUN9q/YIOucc8gHQBzGrmkObvyykzyPz5wddLmouqrZZqfufPTNh4whyABb
XCPXsptDZZss8DlKS37rFVUKLHEhcfd1J+IOioaTnaPhgY/dXg==
-----END CERTIFICATE-----
